; Function Attrs: nounwind uwtable
define internal void @destroy_phar_data(ptr nocapture noundef readonly %0) #0 {
  %2 = load ptr, ptr %0, align 8
  %3 = load i32, ptr getelementptr inbounds (%struct._zend_phar_globals, ptr @phar_globals, i64 0, i32 17), align 8
  %.not = icmp eq i32 %3, 0
  br i1 %.not, label %13, label %4

4:                                                ; preds = %1
  %5 = getelementptr inbounds i8, ptr %2, i64 72
  tail call void @zend_hash_apply(ptr noundef nonnull %5, ptr noundef nonnull @phar_tmpclose_apply) #23
  %.val = load ptr, ptr %0, align 8
  %6 = load ptr, ptr getelementptr inbounds (%struct._zend_executor_globals, ptr @executor_globals, i64 0, i32 50), align 8
  %.not.i = icmp eq ptr %6, null
  br i1 %.not.i, label %7, label %12

7:                                                ; preds = %4
  %8 = getelementptr inbounds i8, ptr %.val, i64 272
  %9 = load i32, ptr %8, align 8
  %10 = add nsw i32 %9, -1
  store i32 %10, ptr %8, align 8
  %11 = icmp slt i32 %9, 1
  br i1 %11, label %12, label %destroy_phar_data_only.exit

12:                                               ; preds = %7, %4
  tail call void @phar_destroy_phar_data(ptr noundef %.val)
  br label %destroy_phar_data_only.exit

13:                                               ; preds = %1
  tail call void @zend_hash_apply_with_argument(ptr noundef nonnull getelementptr inbounds (%struct._zend_phar_globals, ptr @phar_globals, i64 0, i32 3), ptr noundef nonnull @phar_unalias_apply, ptr noundef %2) #23
  %14 = getelementptr inbounds i8, ptr %2, i64 272
  %15 = load i32, ptr %14, align 8
  %16 = add nsw i32 %15, -1
  store i32 %16, ptr %14, align 8
  %17 = icmp slt i32 %15, 1
  br i1 %17, label %18, label %destroy_phar_data_only.exit

18:                                               ; preds = %13
  tail call void @phar_destroy_phar_data(ptr noundef nonnull %2)
  br label %destroy_phar_data_only.exit

destroy_phar_data_only.exit:                      ; preds = %12, %7, %18, %13
  ret void
}